; Function Attrs: nounwind sspstrong uwtable
define dso_local void @ide_bus_set_irq(ptr noundef readonly captures(none) %bus) local_unnamed_addr #0 {
entry:
  %cmd = getelementptr inbounds nuw i8, ptr %bus, i64 2129
  %0 = load i8, ptr %cmd, align 1
  %1 = and i8 %0, 2
  %tobool.not = icmp eq i8 %1, 0
  br i1 %tobool.not, label %if.then, label %if.end

if.then:                                          ; preds = %entry
  %irq = getelementptr inbounds nuw i8, ptr %bus, i64 2136
  %2 = load ptr, ptr %irq, align 8
  tail call void @qemu_set_irq(ptr noundef %2, i32 noundef 1) #17
  br label %if.end

if.end:                                           ; preds = %if.then, %entry
  ret void
}